target datalayout = "e-m:e-p270:32:32-p271:32:32-p272:64:64-i64:64-i128:128-f80:128-n8:16:32:64-S128"
target triple = "x86_64-pc-linux-gnu"

%struct.expert_field = type { i32, i32 }

@ei_gsm_sms_short_data = internal global %struct.expert_field zeroinitializer, align 4
@hf_gsm_sms_tp_mti_up = internal global i32 0, align 4
@hf_gsm_sms_tp_udhi = internal global i32 0, align 4
@hf_gsm_sms_tp_fail_cause = internal global i32 0, align 4
@hf_gsm_sms_tp_parameter_indicator = internal global i32 0, align 4
@hf_gsm_sms_tp_user_data_length = internal global i32 0, align 4
@ett_pi = internal global i32 0, align 4
@.str.620 = private unnamed_addr constant [8 x i8] c"(%d) %s\00", align 1
@.str.621 = private unnamed_addr constant [30 x i8] c"depends on Data-Coding-Scheme\00", align 1
@.str.622 = private unnamed_addr constant [13 x i8] c"no User-Data\00", align 1
@dis_field_pi.pi_flags = internal constant [6 x ptr] [ptr @hf_gsm_sms_tp_extension, ptr @hf_gsm_sms_tp_reserved, ptr @hf_gsm_sms_tp_udl_present, ptr @hf_gsm_sms_tp_dcs_present, ptr @hf_gsm_sms_tp_pid_present, ptr null], align 16

; Function Attrs: null_pointer_is_valid sspstrong uwtable
define internal void @dis_field_pi(ptr noundef %0, ptr noundef %1, i32 noundef %2) #0 {
  %4 = alloca ptr, align 8
  %5 = alloca ptr, align 8
  %6 = alloca i32, align 4
  store ptr %0, ptr %4, align 8
  store ptr %1, ptr %5, align 8
  store i32 %2, ptr %6, align 4
  %7 = load ptr, ptr %5, align 8
  %8 = load ptr, ptr %4, align 8
  %9 = load i32, ptr %6, align 4
  %10 = load i32, ptr @hf_gsm_sms_tp_parameter_indicator, align 4
  %11 = load i32, ptr @ett_pi, align 4
  %12 = call ptr @proto_tree_add_bitmask(ptr noundef %7, ptr noundef %8, i32 noundef %9, i32 noundef %10, i32 noundef %11, ptr noundef @dis_field_pi.pi_flags, i32 noundef 0)
  ret void
}

; Function Attrs: null_pointer_is_valid sspstrong uwtable
define internal void @dis_field_fcs(ptr noundef %0, ptr noundef %1, i32 noundef %2, i8 noundef zeroext %3) #0 {
  %5 = alloca ptr, align 8
  %6 = alloca ptr, align 8
  %7 = alloca i32, align 4
  %8 = alloca i8, align 1
  store ptr %0, ptr %5, align 8
  store ptr %1, ptr %6, align 8
  store i32 %2, ptr %7, align 4
  store i8 %3, ptr %8, align 1
  %9 = load ptr, ptr %6, align 8
  %10 = load i32, ptr @hf_gsm_sms_tp_fail_cause, align 4
  %11 = load ptr, ptr %5, align 8
  %12 = load i32, ptr %7, align 4
  %13 = call ptr @proto_tree_add_item(ptr noundef %9, i32 noundef %10, ptr noundef %11, i32 noundef %12, i32 noundef 1, i32 noundef 0)
  ret void
}

; Function Attrs: null_pointer_is_valid sspstrong uwtable
define internal void @dis_msg_deliver_report(ptr noundef %0, ptr noundef %1, ptr noundef %2, i32 noundef %3, ptr noundef %4) #0 {
  %6 = alloca ptr, align 8
  %7 = alloca ptr, align 8
  %8 = alloca ptr, align 8
  %9 = alloca i32, align 4
  %10 = alloca ptr, align 8
  %11 = alloca i32, align 4
  %12 = alloca i32, align 4
  %13 = alloca i8, align 1
  %14 = alloca i8, align 1
  %15 = alloca i8, align 1
  %16 = alloca i32, align 4
  %17 = alloca i8, align 1
  %18 = alloca i8, align 1
  %19 = alloca i32, align 4
  store ptr %0, ptr %6, align 8
  store ptr %1, ptr %7, align 8
  store ptr %2, ptr %8, align 8
  store i32 %3, ptr %9, align 4
  store ptr %4, ptr %10, align 8
  call void @llvm.lifetime.start.p0(i64 4, ptr %11) #13
  call void @llvm.lifetime.start.p0(i64 4, ptr %12) #13
  call void @llvm.lifetime.start.p0(i64 1, ptr %13) #13
  call void @llvm.lifetime.start.p0(i64 1, ptr %14) #13
  call void @llvm.lifetime.start.p0(i64 1, ptr %15) #13
  call void @llvm.lifetime.start.p0(i64 4, ptr %16) #13
  store i32 0, ptr %16, align 4
  call void @llvm.lifetime.start.p0(i64 1, ptr %17) #13
  store i8 0, ptr %17, align 1
  call void @llvm.lifetime.start.p0(i64 1, ptr %18) #13
  store i8 0, ptr %15, align 1
  %20 = load i32, ptr %9, align 4
  store i32 %20, ptr %11, align 4
  %21 = load ptr, ptr %6, align 8
  %22 = load i32, ptr %9, align 4
  %23 = call i32 @tvb_reported_length_remaining(ptr noundef %21, i32 noundef %22)
  store i32 %23, ptr %12, align 4
  %24 = load ptr, ptr %6, align 8
  %25 = load i32, ptr %9, align 4
  %26 = call zeroext i8 @tvb_get_uint8(ptr noundef %24, i32 noundef %25)
  store i8 %26, ptr %13, align 1
  %27 = load i8, ptr %13, align 1
  %28 = zext i8 %27 to i32
  %29 = and i32 %28, 64
  %30 = icmp ne i32 %29, 0
  %31 = zext i1 %30 to i8
  store i8 %31, ptr %18, align 1
  %32 = load ptr, ptr %8, align 8
  %33 = load i32, ptr @hf_gsm_sms_tp_udhi, align 4
  %34 = load ptr, ptr %6, align 8
  %35 = load i32, ptr %9, align 4
  %36 = call ptr @proto_tree_add_item(ptr noundef %32, i32 noundef %33, ptr noundef %34, i32 noundef %35, i32 noundef 1, i32 noundef 0)
  %37 = load ptr, ptr %8, align 8
  %38 = load i32, ptr @hf_gsm_sms_tp_mti_up, align 4
  %39 = load ptr, ptr %6, align 8
  %40 = load i32, ptr %9, align 4
  %41 = call ptr @proto_tree_add_item(ptr noundef %37, i32 noundef %38, ptr noundef %39, i32 noundef %40, i32 noundef 1, i32 noundef 0)
  %42 = load i32, ptr %12, align 4
  %43 = icmp ult i32 %42, 2
  br i1 %43, label %44, label %51

44:                                               ; preds = %5
  %45 = load ptr, ptr %8, align 8
  %46 = load ptr, ptr %7, align 8
  %47 = load ptr, ptr %6, align 8
  %48 = load i32, ptr %9, align 4
  %49 = load i32, ptr %12, align 4
  %50 = call ptr @proto_tree_add_expert(ptr noundef %45, ptr noundef %46, ptr noundef @ei_gsm_sms_short_data, ptr noundef %47, i32 noundef %48, i32 noundef %49)
  store i32 1, ptr %19, align 4
  br label %189

51:                                               ; preds = %5
  %52 = load i32, ptr %9, align 4
  %53 = add i32 %52, 1
  store i32 %53, ptr %9, align 4
  %54 = load ptr, ptr %6, align 8
  %55 = load i32, ptr %9, align 4
  %56 = call zeroext i8 @tvb_get_uint8(ptr noundef %54, i32 noundef %55)
  store i8 %56, ptr %13, align 1
  %57 = load i8, ptr %13, align 1
  %58 = zext i8 %57 to i32
  %59 = and i32 %58, 128
  %60 = icmp ne i32 %59, 0
  br i1 %60, label %61, label %68

61:                                               ; preds = %51
  %62 = load ptr, ptr %6, align 8
  %63 = load ptr, ptr %8, align 8
  %64 = load i32, ptr %9, align 4
  %65 = load i8, ptr %13, align 1
  call void @dis_field_fcs(ptr noundef %62, ptr noundef %63, i32 noundef %64, i8 noundef zeroext %65)
  %66 = load i32, ptr %9, align 4
  %67 = add i32 %66, 1
  store i32 %67, ptr %9, align 4
  br label %68

68:                                               ; preds = %61, %51
  %69 = load ptr, ptr %6, align 8
  %70 = load i32, ptr %9, align 4
  %71 = call zeroext i8 @tvb_get_uint8(ptr noundef %69, i32 noundef %70)
  store i8 %71, ptr %14, align 1
  %72 = load ptr, ptr %6, align 8
  %73 = load ptr, ptr %8, align 8
  %74 = load i32, ptr %9, align 4
  call void @dis_field_pi(ptr noundef %72, ptr noundef %73, i32 noundef %74)
  %75 = load i8, ptr %14, align 1
  %76 = zext i8 %75 to i32
  %77 = and i32 %76, 1
  %78 = icmp ne i32 %77, 0
  br i1 %78, label %79, label %101

79:                                               ; preds = %68
  %80 = load i32, ptr %12, align 4
  %81 = load i32, ptr %9, align 4
  %82 = load i32, ptr %11, align 4
  %83 = sub i32 %81, %82
  %84 = icmp ule i32 %80, %83
  br i1 %84, label %85, label %91

85:                                               ; preds = %79
  %86 = load ptr, ptr %8, align 8
  %87 = load ptr, ptr %7, align 8
  %88 = load ptr, ptr %6, align 8
  %89 = load i32, ptr %9, align 4
  %90 = call ptr @proto_tree_add_expert(ptr noundef %86, ptr noundef %87, ptr noundef @ei_gsm_sms_short_data, ptr noundef %88, i32 noundef %89, i32 noundef -1)
  store i32 1, ptr %19, align 4
  br label %189

91:                                               ; preds = %79
  %92 = load i32, ptr %9, align 4
  %93 = add i32 %92, 1
  store i32 %93, ptr %9, align 4
  %94 = load ptr, ptr %6, align 8
  %95 = load i32, ptr %9, align 4
  %96 = call zeroext i8 @tvb_get_uint8(ptr noundef %94, i32 noundef %95)
  store i8 %96, ptr %13, align 1
  %97 = load ptr, ptr %6, align 8
  %98 = load ptr, ptr %8, align 8
  %99 = load i32, ptr %9, align 4
  %100 = load i8, ptr %13, align 1
  call void @dis_field_pid(ptr noundef %97, ptr noundef %98, i32 noundef %99, i8 noundef zeroext %100)
  br label %101

101:                                              ; preds = %91, %68
  %102 = load i8, ptr %14, align 1
  %103 = zext i8 %102 to i32
  %104 = and i32 %103, 2
  %105 = icmp ne i32 %104, 0
  br i1 %105, label %106, label %128

106:                                              ; preds = %101
  %107 = load i32, ptr %12, align 4
  %108 = load i32, ptr %9, align 4
  %109 = load i32, ptr %11, align 4
  %110 = sub i32 %108, %109
  %111 = icmp ule i32 %107, %110
  br i1 %111, label %112, label %118

112:                                              ; preds = %106
  %113 = load ptr, ptr %8, align 8
  %114 = load ptr, ptr %7, align 8
  %115 = load ptr, ptr %6, align 8
  %116 = load i32, ptr %9, align 4
  %117 = call ptr @proto_tree_add_expert(ptr noundef %113, ptr noundef %114, ptr noundef @ei_gsm_sms_short_data, ptr noundef %115, i32 noundef %116, i32 noundef -1)
  store i32 1, ptr %19, align 4
  br label %189

118:                                              ; preds = %106
  %119 = load i32, ptr %9, align 4
  %120 = add i32 %119, 1
  store i32 %120, ptr %9, align 4
  %121 = load ptr, ptr %6, align 8
  %122 = load i32, ptr %9, align 4
  %123 = call zeroext i8 @tvb_get_uint8(ptr noundef %121, i32 noundef %122)
  store i8 %123, ptr %13, align 1
  %124 = load ptr, ptr %6, align 8
  %125 = load ptr, ptr %8, align 8
  %126 = load i32, ptr %9, align 4
  %127 = load i8, ptr %13, align 1
  call void @dis_field_dcs(ptr noundef %124, ptr noundef %125, i32 noundef %126, i8 noundef zeroext %127, ptr noundef %16, ptr noundef %17)
  br label %128

128:                                              ; preds = %118, %101
  %129 = load i8, ptr %14, align 1
  %130 = zext i8 %129 to i32
  %131 = and i32 %130, 4
  %132 = icmp ne i32 %131, 0
  br i1 %132, label %133, label %165

133:                                              ; preds = %128
  %134 = load i32, ptr %12, align 4
  %135 = load i32, ptr %9, align 4
  %136 = load i32, ptr %11, align 4
  %137 = sub i32 %135, %136
  %138 = icmp ule i32 %134, %137
  br i1 %138, label %139, label %145

139:                                              ; preds = %133
  %140 = load ptr, ptr %8, align 8
  %141 = load ptr, ptr %7, align 8
  %142 = load ptr, ptr %6, align 8
  %143 = load i32, ptr %9, align 4
  %144 = call ptr @proto_tree_add_expert(ptr noundef %140, ptr noundef %141, ptr noundef @ei_gsm_sms_short_data, ptr noundef %142, i32 noundef %143, i32 noundef -1)
  store i32 1, ptr %19, align 4
  br label %189

145:                                              ; preds = %133
  %146 = load i32, ptr %9, align 4
  %147 = add i32 %146, 1
  store i32 %147, ptr %9, align 4
  %148 = load ptr, ptr %6, align 8
  %149 = load i32, ptr %9, align 4
  %150 = call zeroext i8 @tvb_get_uint8(ptr noundef %148, i32 noundef %149)
  store i8 %150, ptr %13, align 1
  %151 = load i8, ptr %13, align 1
  store i8 %151, ptr %15, align 1
  %152 = load ptr, ptr %8, align 8
  %153 = load i32, ptr @hf_gsm_sms_tp_user_data_length, align 4
  %154 = load ptr, ptr %6, align 8
  %155 = load i32, ptr %9, align 4
  %156 = load i8, ptr %13, align 1
  %157 = zext i8 %156 to i32
  %158 = load i8, ptr %13, align 1
  %159 = zext i8 %158 to i32
  %160 = load i8, ptr %13, align 1
  %161 = zext i8 %160 to i32
  %162 = icmp ne i32 %161, 0
  %163 = select i1 %162, ptr @.str.621, ptr @.str.622
  %164 = call ptr (ptr, i32, ptr, i32, i32, i32, ptr, ...) @proto_tree_add_uint_format_value(ptr noundef %152, i32 noundef %153, ptr noundef %154, i32 noundef %155, i32 noundef 1, i32 noundef %157, ptr noundef @.str.620, i32 noundef %159, ptr noundef %163)
  br label %165

165:                                              ; preds = %145, %128
  %166 = load i8, ptr %15, align 1
  %167 = zext i8 %166 to i32
  %168 = icmp sgt i32 %167, 0
  br i1 %168, label %169, label %188

169:                                              ; preds = %165
  %170 = load i32, ptr %9, align 4
  %171 = add i32 %170, 1
  store i32 %171, ptr %9, align 4
  %172 = load ptr, ptr %6, align 8
  %173 = load ptr, ptr %7, align 8
  %174 = load ptr, ptr %8, align 8
  %175 = load i32, ptr %9, align 4
  %176 = load i32, ptr %12, align 4
  %177 = load i32, ptr %9, align 4
  %178 = load i32, ptr %11, align 4
  %179 = sub i32 %177, %178
  %180 = sub i32 %176, %179
  %181 = load i8, ptr %18, align 1, !range !9, !noundef !10
  %182 = trunc i8 %181 to i1
  %183 = load i8, ptr %15, align 1
  %184 = load i32, ptr %16, align 4
  %185 = load i8, ptr %17, align 1, !range !9, !noundef !10
  %186 = trunc i8 %185 to i1
  %187 = load ptr, ptr %10, align 8
  call void @dis_field_ud(ptr noundef %172, ptr noundef %173, ptr noundef %174, i32 noundef %175, i32 noundef %180, i1 noundef zeroext %182, i8 noundef zeroext %183, i32 noundef %184, i1 noundef zeroext %186, ptr noundef %187)
  br label %188

188:                                              ; preds = %169, %165
  store i32 0, ptr %19, align 4
  br label %189

189:                                              ; preds = %188, %139, %112, %85, %44
  call void @llvm.lifetime.end.p0(i64 1, ptr %18) #13
  call void @llvm.lifetime.end.p0(i64 1, ptr %17) #13
  call void @llvm.lifetime.end.p0(i64 4, ptr %16) #13
  call void @llvm.lifetime.end.p0(i64 1, ptr %15) #13
  call void @llvm.lifetime.end.p0(i64 1, ptr %14) #13
  call void @llvm.lifetime.end.p0(i64 1, ptr %13) #13
  call void @llvm.lifetime.end.p0(i64 4, ptr %12) #13
  call void @llvm.lifetime.end.p0(i64 4, ptr %11) #13
  %190 = load i32, ptr %19, align 4
  switch i32 %190, label %192 [
    i32 0, label %191
    i32 1, label %191
  ]

191:                                              ; preds = %189, %189
  ret void

192:                                              ; preds = %189
  unreachable
}