; Function Attrs: null_pointer_is_valid sspstrong uwtable
define internal void @dis_msg_deliver_report(ptr noundef %0, ptr noundef %1, ptr noundef %2, i32 noundef %3, ptr noundef captures(address_is_null) %4) #0 {
  %6 = alloca i32, align 4
  %7 = alloca i8, align 1
  call void @llvm.lifetime.start.p0(i64 4, ptr nonnull %6) #10
  store i32 0, ptr %6, align 4
  call void @llvm.lifetime.start.p0(i64 1, ptr nonnull %7) #10
  store i8 0, ptr %7, align 1
  %8 = tail call i32 @tvb_reported_length_remaining(ptr noundef %0, i32 noundef %3)
  %9 = tail call zeroext i8 @tvb_get_uint8(ptr noundef %0, i32 noundef %3)
  %10 = and i8 %9, 64
  %11 = icmp ne i8 %10, 0
  %12 = load i32, ptr @hf_gsm_sms_tp_udhi, align 4
  %13 = tail call ptr @proto_tree_add_item(ptr noundef %2, i32 noundef %12, ptr noundef %0, i32 noundef %3, i32 noundef 1, i32 noundef 0)
  %14 = load i32, ptr @hf_gsm_sms_tp_mti_up, align 4
  %15 = tail call ptr @proto_tree_add_item(ptr noundef %2, i32 noundef %14, ptr noundef %0, i32 noundef %3, i32 noundef 1, i32 noundef 0)
  %16 = icmp ult i32 %8, 2
  br i1 %16, label %17, label %19

17:                                               ; preds = %5
  %18 = tail call ptr @proto_tree_add_expert(ptr noundef %2, ptr noundef %1, ptr noundef nonnull @ei_gsm_sms_short_data, ptr noundef %0, i32 noundef %3, i32 noundef %8)
  br label %.thread

19:                                               ; preds = %5
  %20 = add i32 %3, 1
  %21 = tail call zeroext i8 @tvb_get_uint8(ptr noundef %0, i32 noundef %20)
  %.not = icmp sgt i8 %21, -1
  br i1 %.not, label %26, label %22

22:                                               ; preds = %19
  %23 = load i32, ptr @hf_gsm_sms_tp_fail_cause, align 4
  %24 = tail call ptr @proto_tree_add_item(ptr noundef %2, i32 noundef %23, ptr noundef %0, i32 noundef %20, i32 noundef 1, i32 noundef 0)
  %25 = add i32 %3, 2
  br label %26

26:                                               ; preds = %22, %19
  %.0 = phi i32 [ %25, %22 ], [ %20, %19 ]
  %27 = tail call zeroext i8 @tvb_get_uint8(ptr noundef %0, i32 noundef %.0)
  %28 = load i32, ptr @hf_gsm_sms_tp_parameter_indicator, align 4
  %29 = load i32, ptr @ett_pi, align 4
  %30 = tail call ptr @proto_tree_add_bitmask(ptr noundef %2, ptr noundef %0, i32 noundef %.0, i32 noundef %28, i32 noundef %29, ptr noundef nonnull @dis_field_pi.pi_flags, i32 noundef 0)
  %31 = zext i8 %27 to i32
  %32 = and i32 %31, 1
  %.not94 = icmp eq i32 %32, 0
  br i1 %.not94, label %40, label %33

33:                                               ; preds = %26
  %34 = sub i32 %.0, %3
  %.not95 = icmp ugt i32 %8, %34
  br i1 %.not95, label %37, label %35

35:                                               ; preds = %33
  %36 = tail call ptr @proto_tree_add_expert(ptr noundef %2, ptr noundef %1, ptr noundef nonnull @ei_gsm_sms_short_data, ptr noundef %0, i32 noundef %.0, i32 noundef -1)
  br label %.thread

37:                                               ; preds = %33
  %38 = add i32 %.0, 1
  %39 = tail call zeroext i8 @tvb_get_uint8(ptr noundef %0, i32 noundef %38)
  tail call fastcc void @dis_field_pid(ptr noundef %0, ptr noundef %2, i32 noundef %38, i8 noundef zeroext %39)
  br label %40

40:                                               ; preds = %37, %26
  %.1 = phi i32 [ %38, %37 ], [ %.0, %26 ]
  %41 = and i32 %31, 2
  %.not96 = icmp eq i32 %41, 0
  br i1 %.not96, label %49, label %42

42:                                               ; preds = %40
  %43 = sub i32 %.1, %3
  %.not97 = icmp ugt i32 %8, %43
  br i1 %.not97, label %46, label %44

44:                                               ; preds = %42
  %45 = tail call ptr @proto_tree_add_expert(ptr noundef %2, ptr noundef %1, ptr noundef nonnull @ei_gsm_sms_short_data, ptr noundef %0, i32 noundef %.1, i32 noundef -1)
  br label %.thread

46:                                               ; preds = %42
  %47 = add i32 %.1, 1
  %48 = tail call zeroext i8 @tvb_get_uint8(ptr noundef %0, i32 noundef %47)
  call fastcc void @dis_field_dcs(ptr noundef %0, ptr noundef %2, i32 noundef %47, i8 noundef zeroext %48, ptr noundef nonnull %6, ptr noundef nonnull %7)
  br label %49

49:                                               ; preds = %46, %40
  %.2 = phi i32 [ %47, %46 ], [ %.1, %40 ]
  %50 = and i32 %31, 4
  %.not98 = icmp eq i32 %50, 0
  br i1 %.not98, label %.thread, label %51

51:                                               ; preds = %49
  %52 = sub i32 %.2, %3
  %.not99 = icmp ugt i32 %8, %52
  br i1 %.not99, label %55, label %53

53:                                               ; preds = %51
  %54 = tail call ptr @proto_tree_add_expert(ptr noundef %2, ptr noundef %1, ptr noundef nonnull @ei_gsm_sms_short_data, ptr noundef %0, i32 noundef %.2, i32 noundef -1)
  br label %.thread

55:                                               ; preds = %51
  %56 = add i32 %.2, 1
  %57 = tail call zeroext i8 @tvb_get_uint8(ptr noundef %0, i32 noundef %56)
  %58 = load i32, ptr @hf_gsm_sms_tp_user_data_length, align 4
  %59 = zext i8 %57 to i32
  %.not100 = icmp eq i8 %57, 0
  %60 = select i1 %.not100, ptr @.str.622, ptr @.str.621
  %61 = tail call ptr (ptr, i32, ptr, i32, i32, i32, ptr, ...) @proto_tree_add_uint_format_value(ptr noundef %2, i32 noundef %58, ptr noundef %0, i32 noundef %56, i32 noundef 1, i32 noundef %59, ptr noundef nonnull @.str.620, i32 noundef %59, ptr noundef nonnull %60)
  br i1 %.not100, label %.thread, label %62

62:                                               ; preds = %55
  %63 = add i32 %.2, 2
  %.neg = add i32 %8, %3
  %reass.sub = sub i32 %.neg, %.2
  %64 = add i32 %reass.sub, -2
  %65 = load i32, ptr %6, align 4
  %66 = load i8, ptr %7, align 1, !range !9, !noundef !10
  %67 = trunc nuw i8 %66 to i1
  tail call fastcc void @dis_field_ud(ptr noundef %0, ptr noundef %1, ptr noundef %2, i32 noundef %63, i32 noundef %64, i1 noundef zeroext %11, i8 noundef zeroext %57, i32 noundef %65, i1 noundef zeroext %67, ptr noundef %4)
  br label %.thread

.thread:                                          ; preds = %49, %55, %62, %53, %44, %35, %17
  call void @llvm.lifetime.end.p0(i64 1, ptr nonnull %7) #10
  call void @llvm.lifetime.end.p0(i64 4, ptr nonnull %6) #10
  ret void
}